target datalayout = "e-m:e-p270:32:32-p271:32:32-p272:64:64-i64:64-i128:128-f80:128-n8:16:32:64-S128"
target triple = "x86_64-pc-linux-gnu"

%"class.std::_Function_base" = type { %"union.std::_Any_data", ptr }
%"union.std::_Any_data" = type { %"union.std::_Nocopy_types" }
%"union.std::_Nocopy_types" = type { { i64, i64 } }
%"class.(anonymous namespace)::SourceLineSynchronizer" = type { %"class.std::function.395", ptr, i32, i32 }
%"class.std::function.395" = type { %"class.std::_Function_base", ptr }

; Function Attrs: mustprogress nounwind uwtable
define linkonce_odr noundef zeroext i1 @_ZNKSt14_Function_base8_M_emptyEv(ptr noundef nonnull align 8 dereferenceable(24) %0) #4 comdat align 2 {
  %2 = alloca ptr, align 8
  store ptr %0, ptr %2, align 8
  %3 = load ptr, ptr %2, align 8
  %4 = getelementptr inbounds %"class.std::_Function_base", ptr %3, i32 0, i32 1
  %5 = load ptr, ptr %4, align 8
  %6 = icmp ne ptr %5, null
  %7 = xor i1 %6, true
  ret i1 %7
}

; Function Attrs: mustprogress nounwind uwtable
define linkonce_odr noundef i32 @_ZNKSt8functionIFivEEclEv(ptr noundef nonnull align 8 dereferenceable(32) %0) #4 comdat align 2 {
  %2 = alloca ptr, align 8
  store ptr %0, ptr %2, align 8
  %3 = load ptr, ptr %2, align 8
  %4 = call noundef zeroext i1 @_ZNKSt14_Function_base8_M_emptyEv(ptr noundef nonnull align 8 dereferenceable(24) %3)
  br i1 %4, label %5, label %6

5:                                                ; preds = %1
  call void @_ZSt25__throw_bad_function_callv() #16
  unreachable

6:                                                ; preds = %1
  %7 = getelementptr inbounds %"class.std::function.395", ptr %3, i32 0, i32 1
  %8 = load ptr, ptr %7, align 8
  %9 = getelementptr inbounds %"class.std::_Function_base", ptr %3, i32 0, i32 0
  %10 = call noundef i32 %8(ptr noundef nonnull align 8 dereferenceable(16) %9)
  ret i32 %10
}

; Function Attrs: mustprogress nounwind uwtable
define internal noundef zeroext i1 @_ZN12_GLOBAL__N_122SourceLineSynchronizer22syncToMostRecentStringEv(ptr noundef nonnull align 8 dereferenceable(48) %0) #4 align 2 {
  %2 = alloca i1, align 1
  %3 = alloca ptr, align 8
  store ptr %0, ptr %3, align 8
  %4 = load ptr, ptr %3, align 8
  %5 = getelementptr inbounds %"class.(anonymous namespace)::SourceLineSynchronizer", ptr %4, i32 0, i32 0
  %6 = call noundef i32 @_ZNKSt8functionIFivEEclEv(ptr noundef nonnull align 8 dereferenceable(32) %5)
  %7 = getelementptr inbounds %"class.(anonymous namespace)::SourceLineSynchronizer", ptr %4, i32 0, i32 2
  %8 = load i32, ptr %7, align 8
  %9 = icmp ne i32 %6, %8
  br i1 %9, label %10, label %27

10:                                               ; preds = %1
  %11 = getelementptr inbounds %"class.(anonymous namespace)::SourceLineSynchronizer", ptr %4, i32 0, i32 2
  %12 = load i32, ptr %11, align 8
  %13 = icmp ne i32 %12, -1
  br i1 %13, label %18, label %14

14:                                               ; preds = %10
  %15 = getelementptr inbounds %"class.(anonymous namespace)::SourceLineSynchronizer", ptr %4, i32 0, i32 3
  %16 = load i32, ptr %15, align 4
  %17 = icmp ne i32 %16, 0
  br i1 %17, label %18, label %22

18:                                               ; preds = %14, %10
  %19 = getelementptr inbounds %"class.(anonymous namespace)::SourceLineSynchronizer", ptr %4, i32 0, i32 1
  %20 = load ptr, ptr %19, align 8
  %21 = call noundef nonnull align 8 dereferenceable(32) ptr @_ZNSt7__cxx1112basic_stringIcSt11char_traitsIcESaIcEEpLEc(ptr noundef nonnull align 8 dereferenceable(32) %20, i8 noundef signext 10)
  br label %22

22:                                               ; preds = %18, %14
  %23 = getelementptr inbounds %"class.(anonymous namespace)::SourceLineSynchronizer", ptr %4, i32 0, i32 0
  %24 = call noundef i32 @_ZNKSt8functionIFivEEclEv(ptr noundef nonnull align 8 dereferenceable(32) %23)
  %25 = getelementptr inbounds %"class.(anonymous namespace)::SourceLineSynchronizer", ptr %4, i32 0, i32 2
  store i32 %24, ptr %25, align 8
  %26 = getelementptr inbounds %"class.(anonymous namespace)::SourceLineSynchronizer", ptr %4, i32 0, i32 3
  store i32 -1, ptr %26, align 4
  store i1 true, ptr %2, align 1
  br label %28

27:                                               ; preds = %1
  store i1 false, ptr %2, align 1
  br label %28

28:                                               ; preds = %27, %22
  %29 = load i1, ptr %2, align 1
  ret i1 %29
}

; Function Attrs: mustprogress nounwind uwtable
define internal noundef zeroext i1 @_ZN12_GLOBAL__N_122SourceLineSynchronizer10syncToLineEi(ptr noundef nonnull align 8 dereferenceable(48) %0, i32 noundef %1) #4 align 2 {
  %3 = alloca ptr, align 8
  %4 = alloca i32, align 4
  %5 = alloca i8, align 1
  store ptr %0, ptr %3, align 8
  store i32 %1, ptr %4, align 4
  %6 = load ptr, ptr %3, align 8
  %7 = call noundef zeroext i1 @_ZN12_GLOBAL__N_122SourceLineSynchronizer22syncToMostRecentStringEv(ptr noundef nonnull align 8 dereferenceable(48) %6)
  %8 = getelementptr inbounds %"class.(anonymous namespace)::SourceLineSynchronizer", ptr %6, i32 0, i32 3
  %9 = load i32, ptr %8, align 4
  %10 = load i32, ptr %4, align 4
  %11 = icmp slt i32 %9, %10
  %12 = zext i1 %11 to i8
  store i8 %12, ptr %5, align 1
  br label %13

13:                                               ; preds = %27, %2
  %14 = getelementptr inbounds %"class.(anonymous namespace)::SourceLineSynchronizer", ptr %6, i32 0, i32 3
  %15 = load i32, ptr %14, align 4
  %16 = load i32, ptr %4, align 4
  %17 = icmp slt i32 %15, %16
  br i1 %17, label %18, label %31

18:                                               ; preds = %13
  %19 = getelementptr inbounds %"class.(anonymous namespace)::SourceLineSynchronizer", ptr %6, i32 0, i32 3
  %20 = load i32, ptr %19, align 4
  %21 = icmp sgt i32 %20, 0
  br i1 %21, label %22, label %26

22:                                               ; preds = %18
  %23 = getelementptr inbounds %"class.(anonymous namespace)::SourceLineSynchronizer", ptr %6, i32 0, i32 1
  %24 = load ptr, ptr %23, align 8
  %25 = call noundef nonnull align 8 dereferenceable(32) ptr @_ZNSt7__cxx1112basic_stringIcSt11char_traitsIcESaIcEEpLEc(ptr noundef nonnull align 8 dereferenceable(32) %24, i8 noundef signext 10)
  br label %26

26:                                               ; preds = %22, %18
  br label %27

27:                                               ; preds = %26
  %28 = getelementptr inbounds %"class.(anonymous namespace)::SourceLineSynchronizer", ptr %6, i32 0, i32 3
  %29 = load i32, ptr %28, align 4
  %30 = add nsw i32 %29, 1
  store i32 %30, ptr %28, align 4
  br label %13, !llvm.loop !83

31:                                               ; preds = %13
  %32 = load i8, ptr %5, align 1
  %33 = trunc i8 %32 to i1
  ret i1 %33
}