; Function Attrs: mustprogress nounwind uwtable
define internal fastcc noundef zeroext i1 @_ZN12_GLOBAL__N_122SourceLineSynchronizer10syncToLineEi(ptr noundef nonnull align 8 dereferenceable(48) %0, i32 noundef %1) unnamed_addr #3 align 2 {
  %3 = getelementptr inbounds nuw i8, ptr %0, i64 16
  %4 = load ptr, ptr %3, align 8
  %.not.i.i.i = icmp eq ptr %4, null
  br i1 %.not.i.i.i, label %5, label %_ZNKSt8functionIFivEEclEv.exit.i

5:                                                ; preds = %2
  tail call void @_ZSt25__throw_bad_function_callv() #25
  unreachable

_ZNKSt8functionIFivEEclEv.exit.i:                 ; preds = %2
  %6 = getelementptr inbounds nuw i8, ptr %0, i64 24
  %7 = load ptr, ptr %6, align 8
  %8 = tail call noundef i32 %7(ptr noundef nonnull align 8 dereferenceable(48) %0) #24
  %9 = getelementptr inbounds nuw i8, ptr %0, i64 40
  %10 = load i32, ptr %9, align 8
  %.not.i.not = icmp eq i32 %8, %10
  br i1 %.not.i.not, label %_ZNKSt8functionIFivEEclEv.exit.i._ZN12_GLOBAL__N_122SourceLineSynchronizer22syncToMostRecentStringEv.exit_crit_edge, label %11

_ZNKSt8functionIFivEEclEv.exit.i._ZN12_GLOBAL__N_122SourceLineSynchronizer22syncToMostRecentStringEv.exit_crit_edge: ; preds = %_ZNKSt8functionIFivEEclEv.exit.i
  %.phi.trans.insert = getelementptr inbounds nuw i8, ptr %0, i64 44
  %.pre = load i32, ptr %.phi.trans.insert, align 4
  br label %_ZN12_GLOBAL__N_122SourceLineSynchronizer22syncToMostRecentStringEv.exit

11:                                               ; preds = %_ZNKSt8functionIFivEEclEv.exit.i
  %.not3.i = icmp eq i32 %10, -1
  %12 = getelementptr inbounds nuw i8, ptr %0, i64 44
  %13 = load i32, ptr %12, align 4
  %.not4.i = icmp eq i32 %13, 0
  %or.cond.i = select i1 %.not3.i, i1 %.not4.i, i1 false
  br i1 %or.cond.i, label %18, label %14

14:                                               ; preds = %11
  %15 = getelementptr inbounds nuw i8, ptr %0, i64 32
  %16 = load ptr, ptr %15, align 8
  %17 = tail call noundef nonnull align 8 dereferenceable(32) ptr @_ZNSt7__cxx1112basic_stringIcSt11char_traitsIcESaIcEEpLEc(ptr noundef nonnull align 8 dereferenceable(32) %16, i8 noundef signext 10) #24
  br label %18

18:                                               ; preds = %14, %11
  %19 = load ptr, ptr %3, align 8
  %.not.i.i6.i = icmp eq ptr %19, null
  br i1 %.not.i.i6.i, label %20, label %_ZNKSt8functionIFivEEclEv.exit7.i

20:                                               ; preds = %18
  tail call void @_ZSt25__throw_bad_function_callv() #25
  unreachable

_ZNKSt8functionIFivEEclEv.exit7.i:                ; preds = %18
  %21 = load ptr, ptr %6, align 8
  %22 = tail call noundef i32 %21(ptr noundef nonnull align 8 dereferenceable(48) %0) #24
  store i32 %22, ptr %9, align 8
  store i32 -1, ptr %12, align 4
  br label %_ZN12_GLOBAL__N_122SourceLineSynchronizer22syncToMostRecentStringEv.exit

_ZN12_GLOBAL__N_122SourceLineSynchronizer22syncToMostRecentStringEv.exit: ; preds = %_ZNKSt8functionIFivEEclEv.exit.i._ZN12_GLOBAL__N_122SourceLineSynchronizer22syncToMostRecentStringEv.exit_crit_edge, %_ZNKSt8functionIFivEEclEv.exit7.i
  %23 = phi i32 [ %.pre, %_ZNKSt8functionIFivEEclEv.exit.i._ZN12_GLOBAL__N_122SourceLineSynchronizer22syncToMostRecentStringEv.exit_crit_edge ], [ -1, %_ZNKSt8functionIFivEEclEv.exit7.i ]
  %24 = getelementptr inbounds nuw i8, ptr %0, i64 44
  %25 = icmp slt i32 %23, %1
  br i1 %25, label %.lr.ph, label %._crit_edge

.lr.ph:                                           ; preds = %_ZN12_GLOBAL__N_122SourceLineSynchronizer22syncToMostRecentStringEv.exit
  %26 = getelementptr inbounds nuw i8, ptr %0, i64 32
  br label %27

27:                                               ; preds = %.lr.ph, %33
  %28 = phi i32 [ %23, %.lr.ph ], [ %35, %33 ]
  %29 = icmp sgt i32 %28, 0
  br i1 %29, label %30, label %33

30:                                               ; preds = %27
  %31 = load ptr, ptr %26, align 8
  %32 = tail call noundef nonnull align 8 dereferenceable(32) ptr @_ZNSt7__cxx1112basic_stringIcSt11char_traitsIcESaIcEEpLEc(ptr noundef nonnull align 8 dereferenceable(32) %31, i8 noundef signext 10) #24
  %.pre3 = load i32, ptr %24, align 4
  br label %33

33:                                               ; preds = %27, %30
  %34 = phi i32 [ %28, %27 ], [ %.pre3, %30 ]
  %35 = add nsw i32 %34, 1
  store i32 %35, ptr %24, align 4
  %36 = icmp slt i32 %35, %1
  br i1 %36, label %27, label %._crit_edge, !llvm.loop !90

._crit_edge:                                      ; preds = %33, %_ZN12_GLOBAL__N_122SourceLineSynchronizer22syncToMostRecentStringEv.exit
  ret i1 %25
}